(dp1
S'files'
p2
(dp3
S'_home_sebastien_devel_janitoo_janitoo_src_janitoo_mqtt'
p4
(dp5
S'index'
p6
(dp7
S'html_filename'
p8
S'_home_sebastien_devel_janitoo_janitoo_src_janitoo_mqtt.html'
p9
sS'name'
p10
S'/home/sebastien/devel/janitoo/janitoo/src/janitoo/mqtt'
p11
sS'nums'
p12
ccopy_reg
_reconstructor
p13
(ccoverage.results
Numbers
p14
c__builtin__
object
p15
NtRp16
(dp17
S'n_files'
p18
I1
sS'n_branches'
p19
I0
sS'n_statements'
p20
I134
sS'n_excluded'
p21
I0
sS'n_partial_branches'
p22
I0
sS'n_missing'
p23
I28
sS'n_missing_branches'
p24
I0
sbssS'hash'
p25
S'(\x9d\x0f\xa4\x1b\\H\xd5\xe8\x9dC\x18\xa0\x9e\xd6\r'
p26
ssS'_home_sebastien_devel_janitoo_janitoo_src_janitoo_value_factory'
p27
(dp28
g6
(dp29
g8
S'_home_sebastien_devel_janitoo_janitoo_src_janitoo_value_factory.html'
p30
sg10
S'/home/sebastien/devel/janitoo/janitoo/src/janitoo/value_factory'
p31
sg12
g13
(g14
g15
NtRp32
(dp33
g18
I1
sg19
I0
sg20
I237
sg21
I0
sg22
I0
sg23
I157
sg24
I0
sbssg25
S'\xe0\x8bV\x9eq\xf2\x16\xcc\xad\xbe4\x19\xee+\xfd\xa3'
p34
ssS'src_janitoo_raspberry_i2c_pca9685___init__'
p35
(dp36
g6
(dp37
g8
S'src_janitoo_raspberry_i2c_pca9685___init__.html'
p38
sg10
S'src/janitoo_raspberry_i2c_pca9685/__init__'
p39
sg12
g13
(g14
g15
NtRp40
(dp41
g18
I1
sg19
I0
sg20
I4
sg21
I5
sg22
I0
sg23
I0
sg24
I0
sbssg25
S'\xb7\xeb\xa7\x9c>\xb6$\xa8"\x12\xe3\xefN\xc1\xe9\xcd'
p42
ssS'_home_sebastien_devel_janitoo_janitoo_src_janitoo__compat'
p43
(dp44
g6
(dp45
g8
S'_home_sebastien_devel_janitoo_janitoo_src_janitoo__compat.html'
p46
sg10
S'/home/sebastien/devel/janitoo/janitoo/src/janitoo/_compat'
p47
sg12
g13
(g14
g15
NtRp48
(dp49
g18
I1
sg19
I0
sg20
I46
sg21
I0
sg22
I0
sg23
I46
sg24
I0
sbssg25
S'\xf9\x15,\xcb\xd5\xbd\x1d+\xd7\xd5\xd9\xf4\xb2%\x16i'
p50
ssS'janitoo_raspberry_i2c_pca9685'
p51
(dp52
S'index'
p53
(dp54
S'html_filename'
p55
S'janitoo_raspberry_i2c_pca9685.html'
p56
sS'name'
p57
g51
sS'nums'
p58
g13
(g14
g15
NtRp59
(dp60
g18
I1
sg19
I0
sg20
I4
sg21
I5
sg22
I0
sg23
I0
sg24
I0
sbssS'hash'
p61
S'\xb7\xeb\xa7\x9c>\xb6$\xa8"\x12\xe3\xefN\xc1\xe9\xcd'
p62
ssS'_home_sebastien_devel_janitoo_janitoo_src_janitoo_server_updater'
p63
(dp64
g6
(dp65
g8
S'_home_sebastien_devel_janitoo_janitoo_src_janitoo_server_updater.html'
p66
sg10
S'/home/sebastien/devel/janitoo/janitoo/src/janitoo/server_updater'
p67
sg12
g13
(g14
g15
NtRp68
(dp69
g18
I1
sg19
I0
sg20
I264
sg21
I0
sg22
I0
sg23
I264
sg24
I0
sbssg25
S'\x01\xab\xe7KQB\xad\xbeA\x16\xd1]\xf7\x8e\xc2\x07'
p70
ssS'_home_sebastien_devel_janitoo_janitoo_src_janitoo_node'
p71
(dp72
g6
(dp73
g8
S'_home_sebastien_devel_janitoo_janitoo_src_janitoo_node.html'
p74
sg10
S'/home/sebastien/devel/janitoo/janitoo/src/janitoo/node'
p75
sg12
g13
(g14
g15
NtRp76
(dp77
g18
I1
sg19
I0
sg20
I1132
sg21
I0
sg22
I0
sg23
I591
sg24
I0
sbssg25
S'\x15\xb5\x8f\x0b\x89qw\xb8\xa66BDv\xcck\xc1'
p78
ssS'janitoo_raspberry_i2c_pca9685_pca9685'
p79
(dp80
g53
(dp81
g55
S'janitoo_raspberry_i2c_pca9685_pca9685.html'
p82
sg57
S'janitoo_raspberry_i2c_pca9685.pca9685'
p83
sg58
g13
(g14
g15
NtRp84
(dp85
g18
I1
sg19
I0
sg20
I166
sg21
I0
sg22
I0
sg23
I67
sg24
I0
sbssg61
S'8\xbd\xaa\xcad\xbe\xd7\xaak\x95-#\x0f&\x06\xc6'
p86
ssS'_home_sebastien_devel_janitoo_janitoo_src_janitoo_server'
p87
(dp88
g6
(dp89
g8
S'_home_sebastien_devel_janitoo_janitoo_src_janitoo_server.html'
p90
sg10
S'/home/sebastien/devel/janitoo/janitoo/src/janitoo/server'
p91
sg12
g13
(g14
g15
NtRp92
(dp93
g18
I1
sg19
I0
sg20
I323
sg21
I0
sg22
I0
sg23
I174
sg24
I0
sbssg25
S'\t\xda\xbe\x97X\xef\x14\xff\xbc\x10\x0e\xf4Q%\x8e_'
p94
ssS'_home_sebastien_devel_janitoo_janitoo_src_janitoo_tests'
p95
(dp96
g6
(dp97
g8
S'_home_sebastien_devel_janitoo_janitoo_src_janitoo_tests.html'
p98
sg10
S'/home/sebastien/devel/janitoo/janitoo/src/janitoo/tests'
p99
sg12
g13
(g14
g15
NtRp100
(dp101
g18
I1
sg19
I0
sg20
I62
sg21
I0
sg22
I0
sg23
I20
sg24
I0
sbssg25
S'C\x9e\xa4`\xcbI\xf6_\xa2\x0b\x05\x0f\xea_\x0b\x8f'
p102
ssS'_home_sebastien_devel_janitoo_janitoo_src_janitoo_bus'
p103
(dp104
g6
(dp105
g8
S'_home_sebastien_devel_janitoo_janitoo_src_janitoo_bus.html'
p106
sg10
S'/home/sebastien/devel/janitoo/janitoo/src/janitoo/bus'
p107
sg12
g13
(g14
g15
NtRp108
(dp109
g18
I1
sg19
I0
sg20
I172
sg21
I0
sg22
I0
sg23
I113
sg24
I0
sbssg25
S'\xc2\x8c\x0b\x1d\xb4\x83\xed-\xbb\x9d\xf3\x16\x05\xed#c'
p110
ssS'_home_sebastien_devel_janitoo_janitoo_src_janitoo_thread'
p111
(dp112
g6
(dp113
g8
S'_home_sebastien_devel_janitoo_janitoo_src_janitoo_thread.html'
p114
sg10
S'/home/sebastien/devel/janitoo/janitoo/src/janitoo/thread'
p115
sg12
g13
(g14
g15
NtRp116
(dp117
g18
I1
sg19
I0
sg20
I143
sg21
I0
sg22
I0
sg23
I69
sg24
I0
sbssg25
S'\xa2O\x10\x96\xf5\xea!\xe2\x9f\xe8\x18\x14w\xe0j\xd8'
p118
ssS'_home_sebastien_devel_janitoo_janitoo_src_janitoo_options'
p119
(dp120
g6
(dp121
g8
S'_home_sebastien_devel_janitoo_janitoo_src_janitoo_options.html'
p122
sg10
S'/home/sebastien/devel/janitoo/janitoo/src/janitoo/options'
p123
sg12
g13
(g14
g15
NtRp124
(dp125
g18
I1
sg19
I0
sg20
I156
sg21
I0
sg22
I0
sg23
I100
sg24
I0
sbssg25
S'\xf7\xe1X\xc9\xde\xac\xde\x88*9\xa3\xc3\nRx\xe1'
p126
ssS'_home_sebastien_devel_janitoo_janitoo_src_janitoo_utils'
p127
(dp128
g6
(dp129
g8
S'_home_sebastien_devel_janitoo_janitoo_src_janitoo_utils.html'
p130
sg10
S'/home/sebastien/devel/janitoo/janitoo/src/janitoo/utils'
p131
sg12
g13
(g14
g15
NtRp132
(dp133
g18
I1
sg19
I0
sg20
I70
sg21
I0
sg22
I0
sg23
I17
sg24
I0
sbssg25
S'\xee\xcc\r12\x80\x9a\xf2\x02v\xf9QR\xd9\xa5\xc4'
p134
ssS'_home_sebastien_devel_janitoo_janitoo_src_janitoo_classes'
p135
(dp136
g6
(dp137
g8
S'_home_sebastien_devel_janitoo_janitoo_src_janitoo_classes.html'
p138
sg10
S'/home/sebastien/devel/janitoo/janitoo/src/janitoo/classes'
p139
sg12
g13
(g14
g15
NtRp140
(dp141
g18
I1
sg19
I0
sg20
I9
sg21
I0
sg22
I0
sg23
I0
sg24
I0
sbssg25
S'\xe8 \x88yMCm\x9d\xa7|O\x07\xf9\x86\xaff'
p142
ssS'janitoo_raspberry_i2c_pca9685_bus_pca9685'
p143
(dp144
g53
(dp145
g55
S'janitoo_raspberry_i2c_pca9685_bus_pca9685.html'
p146
sg57
S'janitoo_raspberry_i2c_pca9685.bus_pca9685'
p147
sg58
g13
(g14
g15
NtRp148
(dp149
g18
I1
sg19
I0
sg20
I95
sg21
I0
sg22
I0
sg23
I21
sg24
I0
sbssg61
S"\xaf\x8d\xa0\x00\x0b\xeb\x86\x80\x91'\xbc\xe9\x9e\x80\x9a\x80"
p150
ssS'_home_sebastien_devel_janitoo_janitoo_src_janitoo___init__'
p151
(dp152
g6
(dp153
g8
S'_home_sebastien_devel_janitoo_janitoo_src_janitoo___init__.html'
p154
sg10
S'/home/sebastien/devel/janitoo/janitoo/src/janitoo/__init__'
p155
sg12
g13
(g14
g15
NtRp156
(dp157
g18
I1
sg19
I0
sg20
I4
sg21
I5
sg22
I0
sg23
I0
sg24
I0
sbssg25
S'\xbet\xf8\x99\xbe\xda\x9e\xc9&\xaa\xae\xff\x03\xea\xdc.'
p158
ssS'_home_sebastien_devel_janitoo_janitoo_src_janitoo_value'
p159
(dp160
g6
(dp161
g8
S'_home_sebastien_devel_janitoo_janitoo_src_janitoo_value.html'
p162
sg10
S'/home/sebastien/devel/janitoo/janitoo/src/janitoo/value'
p163
sg12
g13
(g14
g15
NtRp164
(dp165
g18
I1
sg19
I0
sg20
I104
sg21
I0
sg22
I0
sg23
I43
sg24
I0
sbssg25
S'\xea\n\xa0\xa9\xc4\xae\xc1\xac>\xe8\xba~b\xc5[\xfd'
p166
ssS'src_janitoo_raspberry_i2c_pca9685_pca9685'
p167
(dp168
g6
(dp169
g8
S'src_janitoo_raspberry_i2c_pca9685_pca9685.html'
p170
sg10
S'src/janitoo_raspberry_i2c_pca9685/pca9685'
p171
sg12
g13
(g14
g15
NtRp172
(dp173
g18
I1
sg19
I0
sg20
I166
sg21
I0
sg22
I0
sg23
I90
sg24
I0
sbssg25
S'-\xe2"\xad\t\xee\xbe6\x17\xab\x18\xf5\xa5\x9d\xd8Y'
p174
ssS'_home_sebastien_devel_janitoo_janitoo_src_janitoo_runner'
p175
(dp176
g6
(dp177
g8
S'_home_sebastien_devel_janitoo_janitoo_src_janitoo_runner.html'
p178
sg10
S'/home/sebastien/devel/janitoo/janitoo/src/janitoo/runner'
p179
sg12
g13
(g14
g15
NtRp180
(dp181
g18
I1
sg19
I0
sg20
I221
sg21
I0
sg22
I0
sg23
I140
sg24
I0
sbssg25
S'm\xbek\xc18\rI"v\xec \xf6\x98\x82\x90\xf7'
p182
ssS'_home_sebastien_devel_janitoo_janitoo_src_janitoo_component'
p183
(dp184
g6
(dp185
g8
S'_home_sebastien_devel_janitoo_janitoo_src_janitoo_component.html'
p186
sg10
S'/home/sebastien/devel/janitoo/janitoo/src/janitoo/component'
p187
sg12
g13
(g14
g15
NtRp188
(dp189
g18
I1
sg19
I0
sg20
I65
sg21
I0
sg22
I0
sg23
I16
sg24
I0
sbssg25
S'\xcc\x0bZ\xbdk\xe3\xac\xa2\xf8\x94t]t]\xe6r'
p190
ssS'src_janitoo_raspberry_i2c_pca9685_bus_pca9685'
p191
(dp192
g6
(dp193
g8
S'src_janitoo_raspberry_i2c_pca9685_bus_pca9685.html'
p194
sg10
S'src/janitoo_raspberry_i2c_pca9685/bus_pca9685'
p195
sg12
g13
(g14
g15
NtRp196
(dp197
g18
I1
sg19
I0
sg20
I95
sg21
I0
sg22
I0
sg23
I59
sg24
I0
sbssg25
S'{,\x15\x90\x04\xa1C\xb4\xdf\x87Ti\xba\xc1&9'
p198
ssS'_home_sebastien_devel_janitoo_janitoo_src_janitoo_dhcp'
p199
(dp200
g6
(dp201
g8
S'_home_sebastien_devel_janitoo_janitoo_src_janitoo_dhcp.html'
p202
sg10
S'/home/sebastien/devel/janitoo/janitoo/src/janitoo/dhcp'
p203
sg12
g13
(g14
g15
NtRp204
(dp205
g18
I1
sg19
I0
sg20
I1442
sg21
I0
sg22
I0
sg23
I1267
sg24
I0
sbssg25
S'\xa1\xbfa3r\x05\x14m\xfd\x1b\x8c\x9f\x91\x01\xf3U'
p206
sssS'version'
p207
S'3.7.1'
p208
sS'settings'
p209
S'\xe3\xcf t\x07\x00W\xda\x99\xc8{\xce1\xe1\xb9\xdf'
p210
sS'format'
p211
I1
s.